target datalayout = "e-m:e-p270:32:32-p271:32:32-p272:64:64-i64:64-i128:128-f80:128-n8:16:32:64-S128"
target triple = "x86_64-pc-linux-gnu"

@hf_fmp_extentList_len = internal global i32 0, align 4
@hf_fmp_extent_state = internal global i32 0, align 4
@hf_fmp_firstLogBlk = internal global i32 0, align 4
@hf_fmp_numBlks = internal global i32 0, align 4
@hf_fmp_volID = internal global i32 0, align 4
@hf_fmp_startOffset = internal global i32 0, align 4
@ett_fmp_extList = internal global i32 0, align 4
@ett_fmp_ext = internal global i32 0, align 4
@.str.283 = private unnamed_addr constant [12 x i8] c"Extent List\00", align 1
@.str.284 = private unnamed_addr constant [12 x i8] c"Extent (%u)\00", align 1

; Function Attrs: null_pointer_is_valid sspstrong uwtable
define internal i32 @dissect_fmp_extentState(ptr noundef %0, i32 noundef %1, ptr noundef %2) #0 {
  %4 = alloca ptr, align 8
  %5 = alloca i32, align 4
  %6 = alloca ptr, align 8
  store ptr %0, ptr %4, align 8
  store i32 %1, ptr %5, align 4
  store ptr %2, ptr %6, align 8
  %7 = load ptr, ptr %4, align 8
  %8 = load ptr, ptr %6, align 8
  %9 = load i32, ptr @hf_fmp_extent_state, align 4
  %10 = load i32, ptr %5, align 4
  %11 = call i32 @dissect_rpc_uint32(ptr noundef %7, ptr noundef %8, i32 noundef %9, i32 noundef %10)
  store i32 %11, ptr %5, align 4
  %12 = load i32, ptr %5, align 4
  ret i32 %12
}

; Function Attrs: null_pointer_is_valid sspstrong uwtable
define internal i32 @dissect_fmp_extent(ptr noundef %0, i32 noundef %1, ptr noundef %2, ptr noundef %3, i32 noundef %4) #0 {
  %6 = alloca ptr, align 8
  %7 = alloca i32, align 4
  %8 = alloca ptr, align 8
  %9 = alloca ptr, align 8
  %10 = alloca i32, align 4
  %11 = alloca ptr, align 8
  store ptr %0, ptr %6, align 8
  store i32 %1, ptr %7, align 4
  store ptr %2, ptr %8, align 8
  store ptr %3, ptr %9, align 8
  store i32 %4, ptr %10, align 4
  call void @llvm.lifetime.start.p0(i64 8, ptr %11) #4
  %12 = load ptr, ptr %9, align 8
  %13 = load ptr, ptr %6, align 8
  %14 = load i32, ptr %7, align 4
  %15 = load i32, ptr @ett_fmp_ext, align 4
  %16 = load i32, ptr %10, align 4
  %17 = call ptr (ptr, ptr, i32, i32, i32, ptr, ptr, ...) @proto_tree_add_subtree_format(ptr noundef %12, ptr noundef %13, i32 noundef %14, i32 noundef 20, i32 noundef %15, ptr noundef null, ptr noundef @.str.284, i32 noundef %16)
  store ptr %17, ptr %11, align 8
  %18 = load ptr, ptr %6, align 8
  %19 = load ptr, ptr %11, align 8
  %20 = load i32, ptr @hf_fmp_firstLogBlk, align 4
  %21 = load i32, ptr %7, align 4
  %22 = call i32 @dissect_rpc_uint32(ptr noundef %18, ptr noundef %19, i32 noundef %20, i32 noundef %21)
  store i32 %22, ptr %7, align 4
  %23 = load ptr, ptr %6, align 8
  %24 = load ptr, ptr %11, align 8
  %25 = load i32, ptr @hf_fmp_numBlks, align 4
  %26 = load i32, ptr %7, align 4
  %27 = call i32 @dissect_rpc_uint32(ptr noundef %23, ptr noundef %24, i32 noundef %25, i32 noundef %26)
  store i32 %27, ptr %7, align 4
  %28 = load ptr, ptr %6, align 8
  %29 = load ptr, ptr %11, align 8
  %30 = load i32, ptr @hf_fmp_volID, align 4
  %31 = load i32, ptr %7, align 4
  %32 = call i32 @dissect_rpc_uint32(ptr noundef %28, ptr noundef %29, i32 noundef %30, i32 noundef %31)
  store i32 %32, ptr %7, align 4
  %33 = load ptr, ptr %6, align 8
  %34 = load ptr, ptr %11, align 8
  %35 = load i32, ptr @hf_fmp_startOffset, align 4
  %36 = load i32, ptr %7, align 4
  %37 = call i32 @dissect_rpc_uint32(ptr noundef %33, ptr noundef %34, i32 noundef %35, i32 noundef %36)
  store i32 %37, ptr %7, align 4
  %38 = load ptr, ptr %6, align 8
  %39 = load i32, ptr %7, align 4
  %40 = load ptr, ptr %11, align 8
  %41 = call i32 @dissect_fmp_extentState(ptr noundef %38, i32 noundef %39, ptr noundef %40)
  store i32 %41, ptr %7, align 4
  %42 = load i32, ptr %7, align 4
  call void @llvm.lifetime.end.p0(i64 8, ptr %11) #4
  ret i32 %42
}

; Function Attrs: null_pointer_is_valid sspstrong uwtable
define internal i32 @dissect_fmp_extentList(ptr noundef %0, i32 noundef %1, ptr noundef %2, ptr noundef %3) #0 {
  %5 = alloca ptr, align 8
  %6 = alloca i32, align 4
  %7 = alloca ptr, align 8
  %8 = alloca ptr, align 8
  %9 = alloca i32, align 4
  %10 = alloca i32, align 4
  %11 = alloca ptr, align 8
  %12 = alloca i32, align 4
  store ptr %0, ptr %5, align 8
  store i32 %1, ptr %6, align 4
  store ptr %2, ptr %7, align 8
  store ptr %3, ptr %8, align 8
  call void @llvm.lifetime.start.p0(i64 4, ptr %9) #4
  call void @llvm.lifetime.start.p0(i64 4, ptr %10) #4
  call void @llvm.lifetime.start.p0(i64 8, ptr %11) #4
  call void @llvm.lifetime.start.p0(i64 4, ptr %12) #4
  %13 = load ptr, ptr %5, align 8
  %14 = load i32, ptr %6, align 4
  %15 = call i32 @tvb_get_ntohl(ptr noundef %13, i32 noundef %14)
  store i32 %15, ptr %9, align 4
  %16 = load i32, ptr %9, align 4
  %17 = mul i32 20, %16
  %18 = add i32 4, %17
  store i32 %18, ptr %10, align 4
  %19 = load ptr, ptr %8, align 8
  %20 = load ptr, ptr %5, align 8
  %21 = load i32, ptr %6, align 4
  %22 = load i32, ptr %10, align 4
  %23 = load i32, ptr @ett_fmp_extList, align 4
  %24 = call ptr @proto_tree_add_subtree(ptr noundef %19, ptr noundef %20, i32 noundef %21, i32 noundef %22, i32 noundef %23, ptr noundef null, ptr noundef @.str.283)
  store ptr %24, ptr %11, align 8
  %25 = load ptr, ptr %5, align 8
  %26 = load ptr, ptr %11, align 8
  %27 = load i32, ptr @hf_fmp_extentList_len, align 4
  %28 = load i32, ptr %6, align 4
  %29 = call i32 @dissect_rpc_uint32(ptr noundef %25, ptr noundef %26, i32 noundef %27, i32 noundef %28)
  store i32 %29, ptr %6, align 4
  store i32 0, ptr %12, align 4
  br label %30

30:                                               ; preds = %42, %4
  %31 = load i32, ptr %12, align 4
  %32 = load i32, ptr %9, align 4
  %33 = icmp ult i32 %31, %32
  br i1 %33, label %34, label %45

34:                                               ; preds = %30
  %35 = load ptr, ptr %5, align 8
  %36 = load i32, ptr %6, align 4
  %37 = load ptr, ptr %7, align 8
  %38 = load ptr, ptr %11, align 8
  %39 = load i32, ptr %12, align 4
  %40 = add i32 %39, 1
  %41 = call i32 @dissect_fmp_extent(ptr noundef %35, i32 noundef %36, ptr noundef %37, ptr noundef %38, i32 noundef %40)
  store i32 %41, ptr %6, align 4
  br label %42

42:                                               ; preds = %34
  %43 = load i32, ptr %12, align 4
  %44 = add i32 %43, 1
  store i32 %44, ptr %12, align 4
  br label %30, !llvm.loop !14

45:                                               ; preds = %30
  %46 = load i32, ptr %6, align 4
  call void @llvm.lifetime.end.p0(i64 4, ptr %12) #4
  call void @llvm.lifetime.end.p0(i64 8, ptr %11) #4
  call void @llvm.lifetime.end.p0(i64 4, ptr %10) #4
  call void @llvm.lifetime.end.p0(i64 4, ptr %9) #4
  ret i32 %46
}