; Function Attrs: null_pointer_is_valid sspstrong uwtable
define internal fastcc i32 @dissect_fmp_extentList(ptr noundef %0, i32 noundef %1, ptr noundef %2) unnamed_addr #0 {
  %4 = tail call i32 @tvb_get_ntohl(ptr noundef %0, i32 noundef %1)
  %5 = mul i32 %4, 20
  %6 = add i32 %5, 4
  %7 = load i32, ptr @ett_fmp_extList, align 4
  %8 = tail call ptr @proto_tree_add_subtree(ptr noundef %2, ptr noundef %0, i32 noundef %1, i32 noundef %6, i32 noundef %7, ptr noundef null, ptr noundef nonnull @.str.283)
  %9 = load i32, ptr @hf_fmp_extentList_len, align 4
  %10 = tail call i32 @dissect_rpc_uint32(ptr noundef %0, ptr noundef %8, i32 noundef %9, i32 noundef %1)
  %.not = icmp eq i32 %4, 0
  br i1 %.not, label %._crit_edge, label %.lr.ph

.lr.ph:                                           ; preds = %3, %.lr.ph
  %.02 = phi i32 [ %11, %.lr.ph ], [ 0, %3 ]
  %.0181 = phi i32 [ %23, %.lr.ph ], [ %10, %3 ]
  %11 = add nuw i32 %.02, 1
  %12 = load i32, ptr @ett_fmp_ext, align 4
  %13 = tail call ptr (ptr, ptr, i32, i32, i32, ptr, ptr, ...) @proto_tree_add_subtree_format(ptr noundef %8, ptr noundef %0, i32 noundef %.0181, i32 noundef 20, i32 noundef %12, ptr noundef null, ptr noundef nonnull @.str.284, i32 noundef %11)
  %14 = load i32, ptr @hf_fmp_firstLogBlk, align 4
  %15 = tail call i32 @dissect_rpc_uint32(ptr noundef %0, ptr noundef %13, i32 noundef %14, i32 noundef %.0181)
  %16 = load i32, ptr @hf_fmp_numBlks, align 4
  %17 = tail call i32 @dissect_rpc_uint32(ptr noundef %0, ptr noundef %13, i32 noundef %16, i32 noundef %15)
  %18 = load i32, ptr @hf_fmp_volID, align 4
  %19 = tail call i32 @dissect_rpc_uint32(ptr noundef %0, ptr noundef %13, i32 noundef %18, i32 noundef %17)
  %20 = load i32, ptr @hf_fmp_startOffset, align 4
  %21 = tail call i32 @dissect_rpc_uint32(ptr noundef %0, ptr noundef %13, i32 noundef %20, i32 noundef %19)
  %22 = load i32, ptr @hf_fmp_extent_state, align 4
  %23 = tail call i32 @dissect_rpc_uint32(ptr noundef %0, ptr noundef %13, i32 noundef %22, i32 noundef %21)
  %exitcond.not = icmp eq i32 %11, %4
  br i1 %exitcond.not, label %._crit_edge, label %.lr.ph, !llvm.loop !14

._crit_edge:                                      ; preds = %.lr.ph, %3
  %.018.lcssa = phi i32 [ %10, %3 ], [ %23, %.lr.ph ]
  ret i32 %.018.lcssa
}